; Function Attrs: mustprogress nofree nounwind uwtable
define internal noundef i32 @_ZL17xdrstdio_getint32P3XDRPi(ptr nocapture noundef readonly %0, ptr nocapture noundef writeonly %1) #6 {
  %3 = alloca i32, align 4
  %4 = alloca i32, align 4
  %5 = alloca i32, align 4
  %6 = getelementptr inbounds i8, ptr %0, i64 24
  %7 = load ptr, ptr %6, align 8
  %8 = call i64 @fread(ptr noundef nonnull %5, i64 noundef 4, i64 noundef 1, ptr noundef %7)
  %.not = icmp eq i64 %8, 1
  br i1 %.not, label %9, label %17

9:                                                ; preds = %2
  %10 = load i32, ptr %5, align 4
  call void @llvm.lifetime.start.p0(i64 4, ptr nonnull %3)
  call void @llvm.lifetime.start.p0(i64 4, ptr nonnull %4)
  store i32 %10, ptr %3, align 4
  br label %11

11:                                               ; preds = %11, %9
  %indvars.iv.i.i = phi i64 [ 0, %9 ], [ %indvars.iv.next.i.i, %11 ]
  %12 = sub nuw nsw i64 3, %indvars.iv.i.i
  %13 = getelementptr inbounds i8, ptr %3, i64 %12
  %14 = load i8, ptr %13, align 1
  %15 = getelementptr inbounds i8, ptr %4, i64 %indvars.iv.i.i
  store i8 %14, ptr %15, align 1
  %indvars.iv.next.i.i = add nuw nsw i64 %indvars.iv.i.i, 1
  %exitcond.not.i.i = icmp eq i64 %indvars.iv.next.i.i, 4
  br i1 %exitcond.not.i.i, label %_ZL9xdr_ntohlj.exit, label %11, !llvm.loop !7

_ZL9xdr_ntohlj.exit:                              ; preds = %11
  %16 = load i32, ptr %4, align 4
  call void @llvm.lifetime.end.p0(i64 4, ptr nonnull %3)
  call void @llvm.lifetime.end.p0(i64 4, ptr nonnull %4)
  store i32 %16, ptr %1, align 4
  br label %17

17:                                               ; preds = %2, %_ZL9xdr_ntohlj.exit
  %.0 = phi i32 [ 1, %_ZL9xdr_ntohlj.exit ], [ 0, %2 ]
  ret i32 %.0
}